target datalayout = "e-m:e-p270:32:32-p271:32:32-p272:64:64-i64:64-i128:128-f80:128-n8:16:32:64-S128"
target triple = "x86_64-pc-linux-gnu"

%"class.std::__cxx11::basic_string" = type { %"struct.std::__cxx11::basic_string<char>::_Alloc_hider", i64, %union.anon }
%"struct.std::__cxx11::basic_string<char>::_Alloc_hider" = type { ptr }
%union.anon = type { i64, [8 x i8] }
%"class.std::basic_ios" = type { %"class.std::ios_base", ptr, i8, i8, ptr, ptr, ptr, ptr }
%"class.std::ios_base" = type { ptr, i64, i64, i32, i32, i32, ptr, %"struct.std::ios_base::_Words", [8 x %"struct.std::ios_base::_Words"], i32, ptr, %"class.std::locale" }
%"struct.std::ios_base::_Words" = type { ptr, i64 }
%"class.std::locale" = type { ptr }
%class.anon = type { i8 }
%class.cmGraphVizWriter = type <{ %class.cmLinkItemGraphVisitor, %"class.std::__cxx11::basic_string", %class.cmGeneratedFileStream, %"class.std::map", %"class.std::map", %"class.std::__cxx11::basic_string", %"class.std::__cxx11::basic_string", %"class.std::__cxx11::basic_string", %"class.std::vector", ptr, i32, [4 x i8], %"class.std::map.22", i8, i8, i8, i8, i8, i8, i8, i8, i8, i8, i8, [5 x i8] }>
%class.cmLinkItemGraphVisitor = type { ptr, %"class.std::set", %"class.std::set.3" }
%"class.std::set" = type { %"class.std::_Rb_tree" }
%"class.std::_Rb_tree" = type { %"struct.std::_Rb_tree<std::__cxx11::basic_string<char>, std::__cxx11::basic_string<char>, std::_Identity<std::__cxx11::basic_string<char>>, std::less<std::__cxx11::basic_string<char>>>::_Rb_tree_impl" }
%"struct.std::_Rb_tree<std::__cxx11::basic_string<char>, std::__cxx11::basic_string<char>, std::_Identity<std::__cxx11::basic_string<char>>, std::less<std::__cxx11::basic_string<char>>>::_Rb_tree_impl" = type { %"struct.std::_Rb_tree_key_compare", %"struct.std::_Rb_tree_header" }
%"struct.std::_Rb_tree_key_compare" = type { %"struct.std::less" }
%"struct.std::less" = type { i8 }
%"struct.std::_Rb_tree_header" = type { %"struct.std::_Rb_tree_node_base", i64 }
%"struct.std::_Rb_tree_node_base" = type { i32, ptr, ptr, ptr }
%"class.std::set.3" = type { %"class.std::_Rb_tree.4" }
%"class.std::_Rb_tree.4" = type { %"struct.std::_Rb_tree<std::pair<std::__cxx11::basic_string<char>, std::__cxx11::basic_string<char>>, std::pair<std::__cxx11::basic_string<char>, std::__cxx11::basic_string<char>>, std::_Identity<std::pair<std::__cxx11::basic_string<char>, std::__cxx11::basic_string<char>>>, std::less<std::pair<std::__cxx11::basic_string<char>, std::__cxx11::basic_string<char>>>>::_Rb_tree_impl" }
%"struct.std::_Rb_tree<std::pair<std::__cxx11::basic_string<char>, std::__cxx11::basic_string<char>>, std::pair<std::__cxx11::basic_string<char>, std::__cxx11::basic_string<char>>, std::_Identity<std::pair<std::__cxx11::basic_string<char>, std::__cxx11::basic_string<char>>>, std::less<std::pair<std::__cxx11::basic_string<char>, std::__cxx11::basic_string<char>>>>::_Rb_tree_impl" = type { %"struct.std::_Rb_tree_key_compare.8", %"struct.std::_Rb_tree_header" }
%"struct.std::_Rb_tree_key_compare.8" = type { %"struct.std::less.9" }
%"struct.std::less.9" = type { i8 }
%class.cmGeneratedFileStream = type <{ %"class.std::basic_ofstream.base", %class.cmGeneratedFileStreamBase.base, [4 x i8], %"class.std::basic_ios" }>
%"class.std::basic_ofstream.base" = type { %"class.std::basic_ostream.base", %"class.std::basic_filebuf" }
%"class.std::basic_ostream.base" = type { ptr }
%"class.std::basic_filebuf" = type { %"class.std::basic_streambuf", %union.pthread_mutex_t, %"class.std::__basic_file", i32, %struct.__mbstate_t, %struct.__mbstate_t, %struct.__mbstate_t, ptr, i64, i8, i8, i8, i8, ptr, ptr, i8, ptr, ptr, i64, ptr, ptr }
%"class.std::basic_streambuf" = type { ptr, ptr, ptr, ptr, ptr, ptr, ptr, %"class.std::locale" }
%union.pthread_mutex_t = type { %struct.__pthread_mutex_s }
%struct.__pthread_mutex_s = type { i32, i32, i32, i32, i32, i16, i16, %struct.__pthread_internal_list }
%struct.__pthread_internal_list = type { ptr, ptr }
%"class.std::__basic_file" = type <{ ptr, i8, [7 x i8] }>
%struct.__mbstate_t = type { i32, %union.anon.11 }
%union.anon.11 = type { i32 }
%class.cmGeneratedFileStreamBase.base = type <{ %"class.std::__cxx11::basic_string", %"class.std::__cxx11::basic_string", %"class.std::__cxx11::basic_string", i8, i8, i8, i8 }>
%"class.std::map" = type { %"class.std::_Rb_tree.12" }
%"class.std::_Rb_tree.12" = type { %"struct.std::_Rb_tree<cmLinkItem, std::pair<const cmLinkItem, std::vector<cmGraphVizWriter::Connection>>, std::_Select1st<std::pair<const cmLinkItem, std::vector<cmGraphVizWriter::Connection>>>, std::less<cmLinkItem>>::_Rb_tree_impl" }
%"struct.std::_Rb_tree<cmLinkItem, std::pair<const cmLinkItem, std::vector<cmGraphVizWriter::Connection>>, std::_Select1st<std::pair<const cmLinkItem, std::vector<cmGraphVizWriter::Connection>>>, std::less<cmLinkItem>>::_Rb_tree_impl" = type { %"struct.std::_Rb_tree_key_compare.16", %"struct.std::_Rb_tree_header" }
%"struct.std::_Rb_tree_key_compare.16" = type { %"struct.std::less.17" }
%"struct.std::less.17" = type { i8 }
%"class.std::vector" = type { %"struct.std::_Vector_base" }
%"struct.std::_Vector_base" = type { %"struct.std::_Vector_base<cmsys::RegularExpression, std::allocator<cmsys::RegularExpression>>::_Vector_impl" }
%"struct.std::_Vector_base<cmsys::RegularExpression, std::allocator<cmsys::RegularExpression>>::_Vector_impl" = type { %"struct.std::_Vector_base<cmsys::RegularExpression, std::allocator<cmsys::RegularExpression>>::_Vector_impl_data" }
%"struct.std::_Vector_base<cmsys::RegularExpression, std::allocator<cmsys::RegularExpression>>::_Vector_impl_data" = type { ptr, ptr, ptr }
%"class.std::map.22" = type { %"class.std::_Rb_tree.23" }
%"class.std::_Rb_tree.23" = type { %"struct.std::_Rb_tree<std::__cxx11::basic_string<char>, std::pair<const std::__cxx11::basic_string<char>, std::__cxx11::basic_string<char>>, std::_Select1st<std::pair<const std::__cxx11::basic_string<char>, std::__cxx11::basic_string<char>>>, std::less<std::__cxx11::basic_string<char>>>::_Rb_tree_impl" }
%"struct.std::_Rb_tree<std::__cxx11::basic_string<char>, std::pair<const std::__cxx11::basic_string<char>, std::__cxx11::basic_string<char>>, std::_Select1st<std::pair<const std::__cxx11::basic_string<char>, std::__cxx11::basic_string<char>>>, std::less<std::__cxx11::basic_string<char>>>::_Rb_tree_impl" = type { %"struct.std::_Rb_tree_key_compare", %"struct.std::_Rb_tree_header" }
%"class.std::basic_string_view" = type { i64, ptr }
%"class.std::initializer_list.744" = type { ptr, i64 }
%"struct.std::pair.745" = type { %"class.std::basic_string_view", ptr }
%class.cmAlphaNum = type { ptr, %"class.std::basic_string_view", [32 x i8] }

@_ZZ8cmStrCatIRNSt7__cxx1112basic_stringIcSt11char_traitsIcESaIcEEERiJEES5_OT_OT0_DpOT1_E8makePair = linkonce_odr dso_local constant %class.anon undef, comdat, align 1

; Function Attrs: mustprogress nounwind uwtable
define linkonce_odr dso_local void @_ZNSt4pairISt17basic_string_viewIcSt11char_traitsIcEEPNSt7__cxx1112basic_stringIcS2_SaIcEEEEC2IS3_S8_TnNSt9enable_ifIXaaclsr5_PCCPE22_MoveConstructiblePairIT_T0_EEclsr5_PCCPE30_ImplicitlyMoveConvertiblePairISC_SD_EEEbE4typeELb1EEEOSC_OSD_(ptr noundef nonnull align 8 dereferenceable(24) %0, ptr noundef nonnull align 8 dereferenceable(16) %1, ptr noundef nonnull align 8 dereferenceable(8) %2) unnamed_addr #5 comdat align 2 {
  %4 = alloca ptr, align 8
  %5 = alloca ptr, align 8
  %6 = alloca ptr, align 8
  store ptr %0, ptr %4, align 8
  store ptr %1, ptr %5, align 8
  store ptr %2, ptr %6, align 8
  %7 = load ptr, ptr %4, align 8
  %8 = getelementptr inbounds %"struct.std::pair.745", ptr %7, i32 0, i32 0
  %9 = load ptr, ptr %5, align 8
  call void @llvm.memcpy.p0.p0.i64(ptr align 8 %8, ptr align 8 %9, i64 16, i1 false)
  %10 = getelementptr inbounds %"struct.std::pair.745", ptr %7, i32 0, i32 1
  %11 = load ptr, ptr %6, align 8
  %12 = load ptr, ptr %11, align 8
  store ptr %12, ptr %10, align 8
  ret void
}

; Function Attrs: mustprogress nounwind uwtable
define linkonce_odr dso_local noundef ptr @_ZNK10cmAlphaNum12RValueStringB5cxx11Ev(ptr noundef nonnull align 8 dereferenceable(56) %0) #5 comdat align 2 {
  %2 = alloca ptr, align 8
  store ptr %0, ptr %2, align 8
  %3 = load ptr, ptr %2, align 8
  %4 = getelementptr inbounds %class.cmAlphaNum, ptr %3, i32 0, i32 0
  %5 = load ptr, ptr %4, align 8
  ret ptr %5
}

; Function Attrs: mustprogress nounwind uwtable
define linkonce_odr dso_local { i64, ptr } @_ZNK10cmAlphaNum4ViewEv(ptr noundef nonnull align 8 dereferenceable(56) %0) #5 comdat align 2 {
  %2 = alloca %"class.std::basic_string_view", align 8
  %3 = alloca ptr, align 8
  store ptr %0, ptr %3, align 8
  %4 = load ptr, ptr %3, align 8
  %5 = getelementptr inbounds %class.cmAlphaNum, ptr %4, i32 0, i32 0
  %6 = load ptr, ptr %5, align 8
  %7 = icmp ne ptr %6, null
  br i1 %7, label %8, label %16

8:                                                ; preds = %1
  %9 = getelementptr inbounds %class.cmAlphaNum, ptr %4, i32 0, i32 0
  %10 = load ptr, ptr %9, align 8
  %11 = call { i64, ptr } @_ZNKSt7__cxx1112basic_stringIcSt11char_traitsIcESaIcEEcvSt17basic_string_viewIcS2_EEv(ptr noundef nonnull align 8 dereferenceable(32) %10) #3
  %12 = getelementptr inbounds { i64, ptr }, ptr %2, i32 0, i32 0
  %13 = extractvalue { i64, ptr } %11, 0
  store i64 %13, ptr %12, align 8
  %14 = getelementptr inbounds { i64, ptr }, ptr %2, i32 0, i32 1
  %15 = extractvalue { i64, ptr } %11, 1
  store ptr %15, ptr %14, align 8
  br label %18

16:                                               ; preds = %1
  %17 = getelementptr inbounds %class.cmAlphaNum, ptr %4, i32 0, i32 1
  call void @llvm.memcpy.p0.p0.i64(ptr align 8 %2, ptr align 8 %17, i64 16, i1 false)
  br label %18

18:                                               ; preds = %16, %8
  %19 = load { i64, ptr }, ptr %2, align 8
  ret { i64, ptr } %19
}

; Function Attrs: mustprogress uwtable
define linkonce_odr dso_local void @_ZZ8cmStrCatIRNSt7__cxx1112basic_stringIcSt11char_traitsIcESaIcEEERiJEES5_OT_OT0_DpOT1_ENKUlRK10cmAlphaNumE_clB5cxx11ESH_(ptr dead_on_unwind noalias writable sret(%"struct.std::pair.745") align 8 %0, ptr noundef nonnull align 1 dereferenceable(1) %1, ptr noundef nonnull align 8 dereferenceable(56) %2) #4 comdat align 2 {
  %4 = alloca ptr, align 8
  %5 = alloca ptr, align 8
  %6 = alloca %"class.std::basic_string_view", align 8
  %7 = alloca ptr, align 8
  store ptr %1, ptr %4, align 8
  store ptr %2, ptr %5, align 8
  %8 = load ptr, ptr %5, align 8
  %9 = call { i64, ptr } @_ZNK10cmAlphaNum4ViewEv(ptr noundef nonnull align 8 dereferenceable(56) %8)
  %10 = getelementptr inbounds { i64, ptr }, ptr %6, i32 0, i32 0
  %11 = extractvalue { i64, ptr } %9, 0
  store i64 %11, ptr %10, align 8
  %12 = getelementptr inbounds { i64, ptr }, ptr %6, i32 0, i32 1
  %13 = extractvalue { i64, ptr } %9, 1
  store ptr %13, ptr %12, align 8
  %14 = load ptr, ptr %5, align 8
  %15 = call noundef ptr @_ZNK10cmAlphaNum12RValueStringB5cxx11Ev(ptr noundef nonnull align 8 dereferenceable(56) %14)
  store ptr %15, ptr %7, align 8
  call void @_ZNSt4pairISt17basic_string_viewIcSt11char_traitsIcEEPNSt7__cxx1112basic_stringIcS2_SaIcEEEEC2IS3_S8_TnNSt9enable_ifIXaaclsr5_PCCPE22_MoveConstructiblePairIT_T0_EEclsr5_PCCPE30_ImplicitlyMoveConvertiblePairISC_SD_EEEbE4typeELb1EEEOSC_OSD_(ptr noundef nonnull align 8 dereferenceable(24) %0, ptr noundef nonnull align 8 dereferenceable(16) %6, ptr noundef nonnull align 8 dereferenceable(8) %7)
  ret void
}

; Function Attrs: mustprogress nounwind uwtable
define linkonce_odr dso_local void @_ZN10cmAlphaNumC2ERKNSt7__cxx1112basic_stringIcSt11char_traitsIcESaIcEEE(ptr noundef nonnull align 8 dereferenceable(56) %0, ptr noundef nonnull align 8 dereferenceable(32) %1) unnamed_addr #5 comdat align 2 {
  %3 = alloca ptr, align 8
  %4 = alloca ptr, align 8
  store ptr %0, ptr %3, align 8
  store ptr %1, ptr %4, align 8
  %5 = load ptr, ptr %3, align 8
  %6 = getelementptr inbounds %class.cmAlphaNum, ptr %5, i32 0, i32 0
  store ptr null, ptr %6, align 8
  %7 = getelementptr inbounds %class.cmAlphaNum, ptr %5, i32 0, i32 1
  %8 = load ptr, ptr %4, align 8
  %9 = call { i64, ptr } @_ZNKSt7__cxx1112basic_stringIcSt11char_traitsIcESaIcEEcvSt17basic_string_viewIcS2_EEv(ptr noundef nonnull align 8 dereferenceable(32) %8) #3
  %10 = getelementptr inbounds { i64, ptr }, ptr %7, i32 0, i32 0
  %11 = extractvalue { i64, ptr } %9, 0
  store i64 %11, ptr %10, align 8
  %12 = getelementptr inbounds { i64, ptr }, ptr %7, i32 0, i32 1
  %13 = extractvalue { i64, ptr } %9, 1
  store ptr %13, ptr %12, align 8
  ret void
}

; Function Attrs: mustprogress uwtable
define linkonce_odr dso_local void @_Z8cmStrCatIRNSt7__cxx1112basic_stringIcSt11char_traitsIcESaIcEEERiJEES5_OT_OT0_DpOT1_(ptr dead_on_unwind noalias writable sret(%"class.std::__cxx11::basic_string") align 8 %0, ptr noundef nonnull align 8 dereferenceable(32) %1, ptr noundef nonnull align 4 dereferenceable(4) %2) #4 comdat {
  %4 = alloca ptr, align 8
  %5 = alloca ptr, align 8
  %6 = alloca ptr, align 8
  %7 = alloca %"class.std::initializer_list.744", align 8
  %8 = alloca [2 x %"struct.std::pair.745"], align 8
  %9 = alloca %class.cmAlphaNum, align 8
  %10 = alloca %class.cmAlphaNum, align 8
  store ptr %0, ptr %4, align 8
  store ptr %1, ptr %5, align 8
  store ptr %2, ptr %6, align 8
  %11 = getelementptr inbounds [2 x %"struct.std::pair.745"], ptr %8, i64 0, i64 0
  %12 = load ptr, ptr %5, align 8
  call void @_ZN10cmAlphaNumC2ERKNSt7__cxx1112basic_stringIcSt11char_traitsIcESaIcEEE(ptr noundef nonnull align 8 dereferenceable(56) %9, ptr noundef nonnull align 8 dereferenceable(32) %12)
  call void @_ZZ8cmStrCatIRNSt7__cxx1112basic_stringIcSt11char_traitsIcESaIcEEERiJEES5_OT_OT0_DpOT1_ENKUlRK10cmAlphaNumE_clB5cxx11ESH_(ptr dead_on_unwind writable sret(%"struct.std::pair.745") align 8 %11, ptr noundef nonnull align 1 dereferenceable(1) @_ZZ8cmStrCatIRNSt7__cxx1112basic_stringIcSt11char_traitsIcESaIcEEERiJEES5_OT_OT0_DpOT1_E8makePair, ptr noundef nonnull align 8 dereferenceable(56) %9)
  %13 = getelementptr inbounds %"struct.std::pair.745", ptr %11, i64 1
  %14 = load ptr, ptr %6, align 8
  %15 = load i32, ptr %14, align 4
  call void @_ZN10cmAlphaNumC1Ei(ptr noundef nonnull align 8 dereferenceable(56) %10, i32 noundef %15)
  call void @_ZZ8cmStrCatIRNSt7__cxx1112basic_stringIcSt11char_traitsIcESaIcEEERiJEES5_OT_OT0_DpOT1_ENKUlRK10cmAlphaNumE_clB5cxx11ESH_(ptr dead_on_unwind writable sret(%"struct.std::pair.745") align 8 %13, ptr noundef nonnull align 1 dereferenceable(1) @_ZZ8cmStrCatIRNSt7__cxx1112basic_stringIcSt11char_traitsIcESaIcEEERiJEES5_OT_OT0_DpOT1_E8makePair, ptr noundef nonnull align 8 dereferenceable(56) %10)
  %16 = getelementptr inbounds %"class.std::initializer_list.744", ptr %7, i32 0, i32 0
  %17 = getelementptr inbounds [2 x %"struct.std::pair.745"], ptr %8, i64 0, i64 0
  store ptr %17, ptr %16, align 8
  %18 = getelementptr inbounds %"class.std::initializer_list.744", ptr %7, i32 0, i32 1
  store i64 2, ptr %18, align 8
  %19 = getelementptr inbounds { ptr, i64 }, ptr %7, i32 0, i32 0
  %20 = load ptr, ptr %19, align 8
  %21 = getelementptr inbounds { ptr, i64 }, ptr %7, i32 0, i32 1
  %22 = load i64, ptr %21, align 8
  call void @_Z10cmCatViewsSt16initializer_listISt4pairISt17basic_string_viewIcSt11char_traitsIcEEPNSt7__cxx1112basic_stringIcS3_SaIcEEEEE(ptr dead_on_unwind writable sret(%"class.std::__cxx11::basic_string") align 8 %0, ptr %20, i64 %22)
  ret void
}

; Function Attrs: mustprogress uwtable
define dso_local void @_ZN16cmGraphVizWriter6OnItemERK10cmLinkItem(ptr noundef nonnull align 8 dereferenceable(1043) %0, ptr noundef nonnull align 8 dereferenceable(104) %1) unnamed_addr #4 align 2 personality ptr @__gxx_personality_v0 {
  %3 = alloca ptr, align 8
  %4 = alloca ptr, align 8
  %5 = alloca %"class.std::__cxx11::basic_string", align 8
  %6 = alloca ptr, align 8
  %7 = alloca i32, align 4
  store ptr %0, ptr %3, align 8
  store ptr %1, ptr %4, align 8
  %8 = load ptr, ptr %3, align 8
  %9 = load ptr, ptr %4, align 8
  %10 = call noundef zeroext i1 @_ZN16cmGraphVizWriter12ItemExcludedERK10cmLinkItem(ptr noundef nonnull align 8 dereferenceable(1043) %8, ptr noundef nonnull align 8 dereferenceable(104) %9)
  br i1 %10, label %11, label %12

11:                                               ; preds = %2
  br label %27

12:                                               ; preds = %2
  %13 = getelementptr inbounds %class.cmGraphVizWriter, ptr %8, i32 0, i32 7
  %14 = getelementptr inbounds %class.cmGraphVizWriter, ptr %8, i32 0, i32 10
  call void @_Z8cmStrCatIRNSt7__cxx1112basic_stringIcSt11char_traitsIcESaIcEEERiJEES5_OT_OT0_DpOT1_(ptr dead_on_unwind writable sret(%"class.std::__cxx11::basic_string") align 8 %5, ptr noundef nonnull align 8 dereferenceable(32) %13, ptr noundef nonnull align 4 dereferenceable(4) %14)
  %15 = getelementptr inbounds %class.cmGraphVizWriter, ptr %8, i32 0, i32 12
  %16 = load ptr, ptr %4, align 8
  %17 = invoke noundef nonnull align 8 dereferenceable(32) ptr @_ZNK10cmLinkItem5AsStrB5cxx11Ev(ptr noundef nonnull align 8 dereferenceable(104) %16)
          to label %18 unwind label %28

18:                                               ; preds = %12
  %19 = invoke noundef nonnull align 8 dereferenceable(32) ptr @_ZNSt3mapINSt7__cxx1112basic_stringIcSt11char_traitsIcESaIcEEES5_St4lessIS5_ESaISt4pairIKS5_S5_EEEixERS9_(ptr noundef nonnull align 8 dereferenceable(48) %15, ptr noundef nonnull align 8 dereferenceable(32) %17)
          to label %20 unwind label %28

20:                                               ; preds = %18
  %21 = call noundef nonnull align 8 dereferenceable(32) ptr @_ZNSt7__cxx1112basic_stringIcSt11char_traitsIcESaIcEEaSEOS4_(ptr noundef nonnull align 8 dereferenceable(32) %19, ptr noundef nonnull align 8 dereferenceable(32) %5) #3
  call void @_ZNSt7__cxx1112basic_stringIcSt11char_traitsIcESaIcEED1Ev(ptr noundef nonnull align 8 dereferenceable(32) %5) #3
  %22 = getelementptr inbounds %class.cmGraphVizWriter, ptr %8, i32 0, i32 10
  %23 = load i32, ptr %22, align 8
  %24 = add nsw i32 %23, 1
  store i32 %24, ptr %22, align 8
  %25 = getelementptr inbounds %class.cmGraphVizWriter, ptr %8, i32 0, i32 2
  %26 = load ptr, ptr %4, align 8
  call void @_ZN16cmGraphVizWriter9WriteNodeER21cmGeneratedFileStreamRK10cmLinkItem(ptr noundef nonnull align 8 dereferenceable(1043) %8, ptr noundef nonnull align 8 dereferenceable(348) %25, ptr noundef nonnull align 8 dereferenceable(104) %26)
  br label %27

27:                                               ; preds = %20, %11
  ret void

28:                                               ; preds = %18, %12
  %29 = landingpad { ptr, i32 }
          cleanup
  %30 = extractvalue { ptr, i32 } %29, 0
  store ptr %30, ptr %6, align 8
  %31 = extractvalue { ptr, i32 } %29, 1
  store i32 %31, ptr %7, align 4
  call void @_ZNSt7__cxx1112basic_stringIcSt11char_traitsIcESaIcEED1Ev(ptr noundef nonnull align 8 dereferenceable(32) %5) #3
  br label %32

32:                                               ; preds = %28
  %33 = load ptr, ptr %6, align 8
  %34 = load i32, ptr %7, align 4
  %35 = insertvalue { ptr, i32 } poison, ptr %33, 0
  %36 = insertvalue { ptr, i32 } %35, i32 %34, 1
  resume { ptr, i32 } %36
}