; Function Attrs: mustprogress uwtable
define dso_local void @_ZN16cmGraphVizWriter6OnItemERK10cmLinkItem(ptr noundef nonnull align 8 dereferenceable(1043) %0, ptr noundef nonnull align 8 dereferenceable(104) %1) unnamed_addr #3 align 2 personality ptr @__gxx_personality_v0 {
  %3 = alloca [2 x %"struct.std::pair.745"], align 8
  %4 = alloca %class.cmAlphaNum, align 8
  %5 = alloca %"class.std::__cxx11::basic_string", align 8
  %6 = tail call noundef zeroext i1 @_ZN16cmGraphVizWriter12ItemExcludedERK10cmLinkItem(ptr noundef nonnull align 8 dereferenceable(1043) %0, ptr noundef nonnull align 8 dereferenceable(104) %1)
  br i1 %6, label %34, label %7

7:                                                ; preds = %2
  %8 = getelementptr inbounds i8, ptr %0, i64 912
  %9 = getelementptr inbounds i8, ptr %0, i64 976
  call void @llvm.lifetime.start.p0(i64 48, ptr nonnull %3)
  call void @llvm.lifetime.start.p0(i64 56, ptr nonnull %4)
  %10 = tail call { i64, ptr } @_ZNKSt7__cxx1112basic_stringIcSt11char_traitsIcESaIcEEcvSt17basic_string_viewIcS2_EEv(ptr noundef nonnull align 8 dereferenceable(32) %8) #21, !noalias !10
  %11 = extractvalue { i64, ptr } %10, 0
  %12 = extractvalue { i64, ptr } %10, 1
  store i64 %11, ptr %3, align 8, !alias.scope !13, !noalias !10
  %.sroa.2.0..sroa_idx.i.i = getelementptr inbounds i8, ptr %3, i64 8
  store ptr %12, ptr %.sroa.2.0..sroa_idx.i.i, align 8, !alias.scope !13, !noalias !10
  %13 = getelementptr inbounds i8, ptr %3, i64 16
  store ptr null, ptr %13, align 8, !alias.scope !13, !noalias !10
  %14 = load i32, ptr %9, align 8, !noalias !10
  call void @_ZN10cmAlphaNumC1Ei(ptr noundef nonnull align 8 dereferenceable(56) %4, i32 noundef %14), !noalias !10
  call void @llvm.experimental.noalias.scope.decl(metadata !16)
  %15 = load ptr, ptr %4, align 8, !noalias !19
  %.not.i.i2.i = icmp eq ptr %15, null
  br i1 %.not.i.i2.i, label %20, label %16

16:                                               ; preds = %7
  %17 = call { i64, ptr } @_ZNKSt7__cxx1112basic_stringIcSt11char_traitsIcESaIcEEcvSt17basic_string_viewIcS2_EEv(ptr noundef nonnull align 8 dereferenceable(32) %15) #21, !noalias !19
  %18 = extractvalue { i64, ptr } %17, 0
  %19 = extractvalue { i64, ptr } %17, 1
  %.pre.i3.i = load ptr, ptr %4, align 8, !noalias !19
  br label %_Z8cmStrCatIRNSt7__cxx1112basic_stringIcSt11char_traitsIcESaIcEEERiJEES5_OT_OT0_DpOT1_.exit

20:                                               ; preds = %7
  %21 = getelementptr inbounds i8, ptr %4, i64 8
  %.sroa.0.0.copyload.i.i7.i = load i64, ptr %21, align 8, !noalias !19
  %.sroa.3.0..sroa_idx.i.i8.i = getelementptr inbounds i8, ptr %4, i64 16
  %.sroa.3.0.copyload.i.i9.i = load ptr, ptr %.sroa.3.0..sroa_idx.i.i8.i, align 8, !noalias !19
  br label %_Z8cmStrCatIRNSt7__cxx1112basic_stringIcSt11char_traitsIcESaIcEEERiJEES5_OT_OT0_DpOT1_.exit

_Z8cmStrCatIRNSt7__cxx1112basic_stringIcSt11char_traitsIcESaIcEEERiJEES5_OT_OT0_DpOT1_.exit: ; preds = %16, %20
  %22 = phi ptr [ %.pre.i3.i, %16 ], [ null, %20 ]
  %.sroa.0.0.i.i4.i = phi i64 [ %18, %16 ], [ %.sroa.0.0.copyload.i.i7.i, %20 ]
  %.sroa.3.0.i.i5.i = phi ptr [ %19, %16 ], [ %.sroa.3.0.copyload.i.i9.i, %20 ]
  %23 = getelementptr inbounds i8, ptr %3, i64 24
  store i64 %.sroa.0.0.i.i4.i, ptr %23, align 8, !alias.scope !16, !noalias !10
  %.sroa.2.0..sroa_idx.i6.i = getelementptr inbounds i8, ptr %3, i64 32
  store ptr %.sroa.3.0.i.i5.i, ptr %.sroa.2.0..sroa_idx.i6.i, align 8, !alias.scope !16, !noalias !10
  %24 = getelementptr inbounds i8, ptr %3, i64 40
  store ptr %22, ptr %24, align 8, !alias.scope !16, !noalias !10
  call void @_Z10cmCatViewsSt16initializer_listISt4pairISt17basic_string_viewIcSt11char_traitsIcEEPNSt7__cxx1112basic_stringIcS3_SaIcEEEEE(ptr dead_on_unwind nonnull writable sret(%"class.std::__cxx11::basic_string") align 8 %5, ptr nonnull %3, i64 2)
  call void @llvm.lifetime.end.p0(i64 48, ptr nonnull %3)
  call void @llvm.lifetime.end.p0(i64 56, ptr nonnull %4)
  %25 = invoke noundef nonnull align 8 dereferenceable(32) ptr @_ZNK10cmLinkItem5AsStrB5cxx11Ev(ptr noundef nonnull align 8 dereferenceable(104) %1)
          to label %26 unwind label %35

26:                                               ; preds = %_Z8cmStrCatIRNSt7__cxx1112basic_stringIcSt11char_traitsIcESaIcEEERiJEES5_OT_OT0_DpOT1_.exit
  %27 = getelementptr inbounds i8, ptr %0, i64 984
  %28 = invoke noundef nonnull align 8 dereferenceable(32) ptr @_ZNSt3mapINSt7__cxx1112basic_stringIcSt11char_traitsIcESaIcEEES5_St4lessIS5_ESaISt4pairIKS5_S5_EEEixERS9_(ptr noundef nonnull align 8 dereferenceable(48) %27, ptr noundef nonnull align 8 dereferenceable(32) %25)
          to label %29 unwind label %35

29:                                               ; preds = %26
  %30 = call noundef nonnull align 8 dereferenceable(32) ptr @_ZNSt7__cxx1112basic_stringIcSt11char_traitsIcESaIcEEaSEOS4_(ptr noundef nonnull align 8 dereferenceable(32) %28, ptr noundef nonnull align 8 dereferenceable(32) %5) #21
  call void @_ZNSt7__cxx1112basic_stringIcSt11char_traitsIcESaIcEED1Ev(ptr noundef nonnull align 8 dereferenceable(32) %5) #21
  %31 = load i32, ptr %9, align 8
  %32 = add nsw i32 %31, 1
  store i32 %32, ptr %9, align 8
  %33 = getelementptr inbounds i8, ptr %0, i64 136
  call void @_ZN16cmGraphVizWriter9WriteNodeER21cmGeneratedFileStreamRK10cmLinkItem(ptr noundef nonnull align 8 dereferenceable(1043) %0, ptr noundef nonnull align 8 dereferenceable(348) %33, ptr noundef nonnull align 8 dereferenceable(104) %1)
  br label %34

34:                                               ; preds = %2, %29
  ret void

35:                                               ; preds = %26, %_Z8cmStrCatIRNSt7__cxx1112basic_stringIcSt11char_traitsIcESaIcEEERiJEES5_OT_OT0_DpOT1_.exit
  %36 = landingpad { ptr, i32 }
          cleanup
  call void @_ZNSt7__cxx1112basic_stringIcSt11char_traitsIcESaIcEED1Ev(ptr noundef nonnull align 8 dereferenceable(32) %5) #21
  resume { ptr, i32 } %36
}